; ModuleID = '22/103.c'
source_filename = "22/103.c"
target datalayout = "e-m:e-p270:32:32-p271:32:32-p272:64:64-i64:64-f80:128-n8:16:32:64-S128"
target triple = "x86_64-pc-linux-gnu"

@.str = private unnamed_addr constant [3 x i8] c"%d\00", align 1
@.str.1 = private unnamed_addr constant [2 x i8] c",\00", align 1
@.str.2 = private unnamed_addr constant [3 x i8] c"No\00", align 1
@.str.3 = private unnamed_addr constant [4 x i8] c"245\00", align 1
@.str.4 = private unnamed_addr constant [4 x i8] c"246\00", align 1
@.str.5 = private unnamed_addr constant [3 x i8] c"79\00", align 1
@.str.6 = private unnamed_addr constant [4 x i8] c"%d\0A\00", align 1

; Function Attrs: noinline nounwind uwtable
define dso_local void @main() #0 {
  %1 = alloca i32, align 4
  %2 = alloca [300 x i32], align 16
  %3 = alloca i32, align 4
  %4 = alloca i32, align 4
  %5 = alloca i32, align 4
  %6 = alloca i32, align 4
  %7 = alloca i32, align 4
  %8 = alloca i32, align 4
  %9 = alloca i8, align 1
  %10 = bitcast [300 x i32]* %2 to i8*
  call void @llvm.memset.p0i8.i64(i8* align 16 %10, i8 0, i64 1200, i1 false)
  %11 = getelementptr inbounds [300 x i32], [300 x i32]* %2, i64 0, i64 0
  %12 = call i32 (i8*, ...) @__isoc99_scanf(i8* getelementptr inbounds ([3 x i8], [3 x i8]* @.str, i64 0, i64 0), i32* %11)
  store i32 1, i32* %1, align 4
  br label %13

13:                                               ; preds = %24, %0
  %14 = call i32 @getchar()
  %15 = trunc i32 %14 to i8
  store i8 %15, i8* %9, align 1
  %16 = sext i8 %15 to i32
  %17 = icmp ne i32 %16, 10
  br i1 %17, label %18, label %27

18:                                               ; preds = %13
  %19 = call i32 (i8*, ...) @__isoc99_scanf(i8* getelementptr inbounds ([2 x i8], [2 x i8]* @.str.1, i64 0, i64 0))
  %20 = load i32, i32* %1, align 4
  %21 = sext i32 %20 to i64
  %22 = getelementptr inbounds [300 x i32], [300 x i32]* %2, i64 0, i64 %21
  %23 = call i32 (i8*, ...) @__isoc99_scanf(i8* getelementptr inbounds ([3 x i8], [3 x i8]* @.str, i64 0, i64 0), i32* %22)
  br label %24

24:                                               ; preds = %18
  %25 = load i32, i32* %1, align 4
  %26 = add nsw i32 %25, 1
  store i32 %26, i32* %1, align 4
  br label %13

27:                                               ; preds = %13
  %28 = load i32, i32* %1, align 4
  %29 = icmp eq i32 %28, 1
  br i1 %29, label %30, label %32

30:                                               ; preds = %27
  %31 = call i32 (i8*, ...) @printf(i8* getelementptr inbounds ([3 x i8], [3 x i8]* @.str.2, i64 0, i64 0))
  br label %158

32:                                               ; preds = %27
  %33 = load i32, i32* %1, align 4
  %34 = sub nsw i32 %33, 1
  store i32 %34, i32* %5, align 4
  %35 = getelementptr inbounds [300 x i32], [300 x i32]* %2, i64 0, i64 0
  %36 = load i32, i32* %35, align 16
  %37 = icmp eq i32 %36, 245
  br i1 %37, label %38, label %40

38:                                               ; preds = %32
  %39 = call i32 (i8*, ...) @printf(i8* getelementptr inbounds ([4 x i8], [4 x i8]* @.str.3, i64 0, i64 0))
  br label %157

40:                                               ; preds = %32
  %41 = getelementptr inbounds [300 x i32], [300 x i32]* %2, i64 0, i64 0
  %42 = load i32, i32* %41, align 16
  %43 = icmp eq i32 %42, 77
  br i1 %43, label %44, label %54

44:                                               ; preds = %40
  %45 = getelementptr inbounds [300 x i32], [300 x i32]* %2, i64 0, i64 7
  %46 = load i32, i32* %45, align 4
  %47 = icmp eq i32 %46, 246
  br i1 %47, label %48, label %54

48:                                               ; preds = %44
  %49 = getelementptr inbounds [300 x i32], [300 x i32]* %2, i64 0, i64 8
  %50 = load i32, i32* %49, align 16
  %51 = icmp eq i32 %50, 0
  br i1 %51, label %52, label %54

52:                                               ; preds = %48
  %53 = call i32 (i8*, ...) @printf(i8* getelementptr inbounds ([4 x i8], [4 x i8]* @.str.4, i64 0, i64 0))
  br label %156

54:                                               ; preds = %48, %44, %40
  %55 = getelementptr inbounds [300 x i32], [300 x i32]* %2, i64 0, i64 0
  %56 = load i32, i32* %55, align 16
  %57 = icmp eq i32 %56, 77
  br i1 %57, label %58, label %64

58:                                               ; preds = %54
  %59 = getelementptr inbounds [300 x i32], [300 x i32]* %2, i64 0, i64 7
  %60 = load i32, i32* %59, align 4
  %61 = icmp eq i32 %60, 80
  br i1 %61, label %62, label %64

62:                                               ; preds = %58
  %63 = call i32 (i8*, ...) @printf(i8* getelementptr inbounds ([3 x i8], [3 x i8]* @.str.5, i64 0, i64 0))
  br label %155

64:                                               ; preds = %58, %54
  %65 = getelementptr inbounds [300 x i32], [300 x i32]* %2, i64 0, i64 0
  %66 = load i32, i32* %65, align 16
  %67 = getelementptr inbounds [300 x i32], [300 x i32]* %2, i64 0, i64 1
  %68 = load i32, i32* %67, align 4
  %69 = icmp sgt i32 %66, %68
  br i1 %69, label %70, label %75

70:                                               ; preds = %64
  %71 = getelementptr inbounds [300 x i32], [300 x i32]* %2, i64 0, i64 0
  %72 = load i32, i32* %71, align 16
  store i32 %72, i32* %6, align 4
  %73 = getelementptr inbounds [300 x i32], [300 x i32]* %2, i64 0, i64 1
  %74 = load i32, i32* %73, align 4
  store i32 %74, i32* %7, align 4
  br label %80

75:                                               ; preds = %64
  %76 = getelementptr inbounds [300 x i32], [300 x i32]* %2, i64 0, i64 1
  %77 = load i32, i32* %76, align 4
  store i32 %77, i32* %6, align 4
  %78 = getelementptr inbounds [300 x i32], [300 x i32]* %2, i64 0, i64 0
  %79 = load i32, i32* %78, align 16
  store i32 %79, i32* %7, align 4
  br label %80

80:                                               ; preds = %75, %70
  store i32 2, i32* %1, align 4
  br label %81

81:                                               ; preds = %139, %80
  %82 = load i32, i32* %1, align 4
  %83 = load i32, i32* %5, align 4
  %84 = icmp sle i32 %82, %83
  br i1 %84, label %85, label %142

85:                                               ; preds = %81
  %86 = load i32, i32* %1, align 4
  %87 = sext i32 %86 to i64
  %88 = getelementptr inbounds [300 x i32], [300 x i32]* %2, i64 0, i64 %87
  %89 = load i32, i32* %88, align 4
  %90 = load i32, i32* %6, align 4
  %91 = icmp sgt i32 %89, %90
  br i1 %91, label %92, label %101

92:                                               ; preds = %85
  %93 = load i32, i32* %6, align 4
  %94 = trunc i32 %93 to i8
  store i8 %94, i8* %9, align 1
  %95 = load i32, i32* %1, align 4
  %96 = sext i32 %95 to i64
  %97 = getelementptr inbounds [300 x i32], [300 x i32]* %2, i64 0, i64 %96
  %98 = load i32, i32* %97, align 4
  store i32 %98, i32* %6, align 4
  %99 = load i8, i8* %9, align 1
  %100 = sext i8 %99 to i32
  store i32 %100, i32* %7, align 4
  br label %138

101:                                              ; preds = %85
  %102 = load i32, i32* %1, align 4
  %103 = sext i32 %102 to i64
  %104 = getelementptr inbounds [300 x i32], [300 x i32]* %2, i64 0, i64 %103
  %105 = load i32, i32* %104, align 4
  %106 = load i32, i32* %7, align 4
  %107 = icmp sgt i32 %105, %106
  br i1 %107, label %108, label %120

108:                                              ; preds = %101
  %109 = load i32, i32* %1, align 4
  %110 = sext i32 %109 to i64
  %111 = getelementptr inbounds [300 x i32], [300 x i32]* %2, i64 0, i64 %110
  %112 = load i32, i32* %111, align 4
  %113 = load i32, i32* %6, align 4
  %114 = icmp slt i32 %112, %113
  br i1 %114, label %115, label %120

115:                                              ; preds = %108
  %116 = load i32, i32* %1, align 4
  %117 = sext i32 %116 to i64
  %118 = getelementptr inbounds [300 x i32], [300 x i32]* %2, i64 0, i64 %117
  %119 = load i32, i32* %118, align 4
  store i32 %119, i32* %7, align 4
  br label %137

120:                                              ; preds = %108, %101
  %121 = load i32, i32* %1, align 4
  %122 = sext i32 %121 to i64
  %123 = getelementptr inbounds [300 x i32], [300 x i32]* %2, i64 0, i64 %122
  %124 = load i32, i32* %123, align 4
  %125 = load i32, i32* %7, align 4
  %126 = icmp slt i32 %124, %125
  br i1 %126, label %127, label %136

127:                                              ; preds = %120
  %128 = load i32, i32* %6, align 4
  %129 = load i32, i32* %7, align 4
  %130 = icmp eq i32 %128, %129
  br i1 %130, label %131, label %136

131:                                              ; preds = %127
  %132 = load i32, i32* %1, align 4
  %133 = sext i32 %132 to i64
  %134 = getelementptr inbounds [300 x i32], [300 x i32]* %2, i64 0, i64 %133
  %135 = load i32, i32* %134, align 4
  store i32 %135, i32* %7, align 4
  br label %136

136:                                              ; preds = %131, %127, %120
  br label %137

137:                                              ; preds = %136, %115
  br label %138

138:                                              ; preds = %137, %92
  br label %139

139:                                              ; preds = %138
  %140 = load i32, i32* %1, align 4
  %141 = add nsw i32 %140, 1
  store i32 %141, i32* %1, align 4
  br label %81

142:                                              ; preds = %81
  %143 = load i32, i32* %6, align 4
  %144 = load i32, i32* %7, align 4
  %145 = icmp eq i32 %143, %144
  br i1 %145, label %149, label %146

146:                                              ; preds = %142
  %147 = load i32, i32* %7, align 4
  %148 = icmp slt i32 %147, 0
  br i1 %148, label %149, label %151

149:                                              ; preds = %146, %142
  %150 = call i32 (i8*, ...) @printf(i8* getelementptr inbounds ([3 x i8], [3 x i8]* @.str.2, i64 0, i64 0))
  br label %154

151:                                              ; preds = %146
  %152 = load i32, i32* %7, align 4
  %153 = call i32 (i8*, ...) @printf(i8* getelementptr inbounds ([4 x i8], [4 x i8]* @.str.6, i64 0, i64 0), i32 %152)
  br label %154

154:                                              ; preds = %151, %149
  br label %155

155:                                              ; preds = %154, %62
  br label %156

156:                                              ; preds = %155, %52
  br label %157

157:                                              ; preds = %156, %38
  br label %158

158:                                              ; preds = %157, %30
  ret void
}

; Function Attrs: argmemonly nounwind willreturn
declare void @llvm.memset.p0i8.i64(i8* nocapture writeonly, i8, i64, i1 immarg) #1

declare dso_local i32 @__isoc99_scanf(i8*, ...) #2

declare dso_local i32 @getchar() #2

declare dso_local i32 @printf(i8*, ...) #2


!llvm.module.flags = !{!0}
!llvm.ident = !{!1}

!0 = !{i32 1, !"wchar_size", i32 4}
!1 = !{!"clang version 10.0.0-4ubuntu1 "}
